target datalayout = "e-m:e-p270:32:32-p271:32:32-p272:64:64-i64:64-i128:128-f80:128-n8:16:32:64-S128"
target triple = "x86_64-unknown-linux-gnu"

%"class.llvh::SMLoc" = type { ptr }
%"class.hermes::irgen::ESTreeIRGen" = type { ptr, %"class.hermes::IRBuilder", %"class.hermes::IRInstrument", ptr, ptr, ptr, ptr, %"class.hermes::ScopedHashTable", %"class.std::shared_ptr", %"class.hermes::Identifier", %"class.hermes::Identifier", %"class.hermes::Identifier", ptr, ptr, %"class.llvh::DenseMap.9" }
%"class.hermes::IRBuilder" = type { ptr, %"class.llvh::ilist_iterator", ptr, %"class.llvh::SMLoc", ptr }
%"class.llvh::ilist_iterator" = type { ptr }
%"class.hermes::IRInstrument" = type { i8 }
%"class.hermes::ScopedHashTable" = type { %"class.llvh::DenseMap", ptr }
%"class.llvh::DenseMap" = type <{ ptr, i32, i32, i32, [4 x i8] }>
%"class.std::shared_ptr" = type { %"class.std::__shared_ptr" }
%"class.std::__shared_ptr" = type { ptr, %"class.std::__shared_count" }
%"class.std::__shared_count" = type { ptr }
%"class.hermes::Identifier" = type { ptr }
%"class.llvh::DenseMap.9" = type <{ ptr, i32, i32, i32, [4 x i8] }>
%"class.llvh::StringRef" = type { ptr, i64 }
%"class.llvh::ArrayRef" = type { ptr, i64 }

@.str.11 = private unnamed_addr constant [15 x i8] c"HermesInternal\00", align 1

; Function Attrs: mustprogress nounwind uwtable
define hidden noundef ptr @_ZN6hermes5irgen11ESTreeIRGen21genHermesInternalCallEN4llvh9StringRefEPNS_5ValueENS2_8ArrayRefIS5_EE(ptr noundef nonnull align 8 dereferenceable(200) %this, ptr %name.coerce0, i64 %name.coerce1, ptr noundef %thisValue, ptr %args.coerce0, i64 %args.coerce1) #0 align 2 {
entry:
  %this.addr.i = alloca ptr, align 8
  %Str.addr.i = alloca ptr, align 8
  %name = alloca %"class.llvh::StringRef", align 8
  %args = alloca %"class.llvh::ArrayRef", align 8
  %this.addr = alloca ptr, align 8
  %thisValue.addr = alloca ptr, align 8
  %agg.tmp = alloca %"class.llvh::StringRef", align 8
  %agg.tmp4 = alloca %"class.llvh::StringRef", align 8
  %agg.tmp10 = alloca %"class.llvh::ArrayRef", align 8
  %0 = getelementptr inbounds { ptr, i64 }, ptr %name, i32 0, i32 0
  store ptr %name.coerce0, ptr %0, align 8
  %1 = getelementptr inbounds { ptr, i64 }, ptr %name, i32 0, i32 1
  store i64 %name.coerce1, ptr %1, align 8
  %2 = getelementptr inbounds { ptr, i64 }, ptr %args, i32 0, i32 0
  store ptr %args.coerce0, ptr %2, align 8
  %3 = getelementptr inbounds { ptr, i64 }, ptr %args, i32 0, i32 1
  store i64 %args.coerce1, ptr %3, align 8
  store ptr %this, ptr %this.addr, align 8
  store ptr %thisValue, ptr %thisValue.addr, align 8
  %this1 = load ptr, ptr %this.addr, align 8
  %Builder = getelementptr inbounds %"class.hermes::irgen::ESTreeIRGen", ptr %this1, i32 0, i32 1
  %Builder2 = getelementptr inbounds %"class.hermes::irgen::ESTreeIRGen", ptr %this1, i32 0, i32 1
  %Builder3 = getelementptr inbounds %"class.hermes::irgen::ESTreeIRGen", ptr %this1, i32 0, i32 1
  store ptr %agg.tmp, ptr %this.addr.i, align 8
  store ptr @.str.11, ptr %Str.addr.i, align 8
  %this1.i = load ptr, ptr %this.addr.i, align 8
  %4 = load ptr, ptr %Str.addr.i, align 8
  store ptr %4, ptr %this1.i, align 8
  %Length.i = getelementptr inbounds %"class.llvh::StringRef", ptr %this1.i, i32 0, i32 1
  %5 = load ptr, ptr %Str.addr.i, align 8
  %tobool.i = icmp ne ptr %5, null
  br i1 %tobool.i, label %cond.true.i, label %cond.false.i

cond.true.i:                                      ; preds = %entry
  %6 = load ptr, ptr %Str.addr.i, align 8
  %call.i = call i64 @strlen(ptr noundef %6) #11
  br label %_ZN4llvh9StringRefC2EPKc.exit

cond.false.i:                                     ; preds = %entry
  br label %_ZN4llvh9StringRefC2EPKc.exit

_ZN4llvh9StringRefC2EPKc.exit:                    ; preds = %cond.false.i, %cond.true.i
  %cond.i = phi i64 [ %call.i, %cond.true.i ], [ 0, %cond.false.i ]
  store i64 %cond.i, ptr %Length.i, align 8
  %7 = getelementptr inbounds { ptr, i64 }, ptr %agg.tmp, i32 0, i32 0
  %8 = load ptr, ptr %7, align 8
  %9 = getelementptr inbounds { ptr, i64 }, ptr %agg.tmp, i32 0, i32 1
  %10 = load i64, ptr %9, align 8
  %call = call noundef ptr @_ZN6hermes9IRBuilder31createTryLoadGlobalPropertyInstEN4llvh9StringRefE(ptr noundef nonnull align 8 dereferenceable(40) %Builder3, ptr %8, i64 %10)
  %11 = icmp eq ptr %call, null
  br i1 %11, label %cast.end, label %cast.notnull

cast.notnull:                                     ; preds = %_ZN4llvh9StringRefC2EPKc.exit
  %add.ptr = getelementptr inbounds i8, ptr %call, i64 16
  br label %cast.end

cast.end:                                         ; preds = %cast.notnull, %_ZN4llvh9StringRefC2EPKc.exit
  %cast.result = phi ptr [ %add.ptr, %cast.notnull ], [ null, %_ZN4llvh9StringRefC2EPKc.exit ]
  call void @llvm.memcpy.p0.p0.i64(ptr align 8 %agg.tmp4, ptr align 8 %name, i64 16, i1 false)
  %12 = getelementptr inbounds { ptr, i64 }, ptr %agg.tmp4, i32 0, i32 0
  %13 = load ptr, ptr %12, align 8
  %14 = getelementptr inbounds { ptr, i64 }, ptr %agg.tmp4, i32 0, i32 1
  %15 = load i64, ptr %14, align 8
  %call5 = call noundef ptr @_ZN6hermes9IRBuilder22createLoadPropertyInstEPNS_5ValueEN4llvh9StringRefE(ptr noundef nonnull align 8 dereferenceable(40) %Builder2, ptr noundef %cast.result, ptr %13, i64 %15)
  %16 = icmp eq ptr %call5, null
  br i1 %16, label %cast.end8, label %cast.notnull6

cast.notnull6:                                    ; preds = %cast.end
  %add.ptr7 = getelementptr inbounds i8, ptr %call5, i64 16
  br label %cast.end8

cast.end8:                                        ; preds = %cast.notnull6, %cast.end
  %cast.result9 = phi ptr [ %add.ptr7, %cast.notnull6 ], [ null, %cast.end ]
  %17 = load ptr, ptr %thisValue.addr, align 8
  call void @llvm.memcpy.p0.p0.i64(ptr align 8 %agg.tmp10, ptr align 8 %args, i64 16, i1 false)
  %18 = getelementptr inbounds { ptr, i64 }, ptr %agg.tmp10, i32 0, i32 0
  %19 = load ptr, ptr %18, align 8
  %20 = getelementptr inbounds { ptr, i64 }, ptr %agg.tmp10, i32 0, i32 1
  %21 = load i64, ptr %20, align 8
  %call11 = call noundef ptr @_ZN6hermes9IRBuilder14createCallInstEPNS_13LiteralStringEPNS_5ValueES4_N4llvh8ArrayRefIS4_EE(ptr noundef nonnull align 8 dereferenceable(40) %Builder, ptr noundef null, ptr noundef %cast.result9, ptr noundef %17, ptr %19, i64 %21)
  %22 = icmp eq ptr %call11, null
  br i1 %22, label %cast.end14, label %cast.notnull12

cast.notnull12:                                   ; preds = %cast.end8
  %add.ptr13 = getelementptr inbounds i8, ptr %call11, i64 16
  br label %cast.end14

cast.end14:                                       ; preds = %cast.notnull12, %cast.end8
  %cast.result15 = phi ptr [ %add.ptr13, %cast.notnull12 ], [ null, %cast.end8 ]
  ret ptr %cast.result15
}