; Function Attrs: mustprogress nounwind uwtable
define hidden noundef ptr @_ZN6hermes5irgen11ESTreeIRGen21genHermesInternalCallEN4llvh9StringRefEPNS_5ValueENS2_8ArrayRefIS5_EE(ptr noundef nonnull align 8 dereferenceable(200) %this, ptr %name.coerce0, i64 %name.coerce1, ptr noundef %thisValue, ptr %args.coerce0, i64 %args.coerce1) local_unnamed_addr #0 align 2 {
entry:
  %Builder = getelementptr inbounds i8, ptr %this, i64 8
  %call = tail call noundef ptr @_ZN6hermes9IRBuilder31createTryLoadGlobalPropertyInstEN4llvh9StringRefE(ptr noundef nonnull align 8 dereferenceable(40) %Builder, ptr nonnull @.str.11, i64 14) #15
  %0 = icmp eq ptr %call, null
  %add.ptr = getelementptr inbounds i8, ptr %call, i64 16
  %spec.select = select i1 %0, ptr null, ptr %add.ptr
  %call5 = tail call noundef ptr @_ZN6hermes9IRBuilder22createLoadPropertyInstEPNS_5ValueEN4llvh9StringRefE(ptr noundef nonnull align 8 dereferenceable(40) %Builder, ptr noundef %spec.select, ptr %name.coerce0, i64 %name.coerce1) #15
  %1 = icmp eq ptr %call5, null
  %add.ptr7 = getelementptr inbounds i8, ptr %call5, i64 16
  %cast.result9 = select i1 %1, ptr null, ptr %add.ptr7
  %call11 = tail call noundef ptr @_ZN6hermes9IRBuilder14createCallInstEPNS_13LiteralStringEPNS_5ValueES4_N4llvh8ArrayRefIS4_EE(ptr noundef nonnull align 8 dereferenceable(40) %Builder, ptr noundef null, ptr noundef %cast.result9, ptr noundef %thisValue, ptr %args.coerce0, i64 %args.coerce1) #15
  %2 = icmp eq ptr %call11, null
  %add.ptr13 = getelementptr inbounds i8, ptr %call11, i64 16
  %cast.result15 = select i1 %2, ptr null, ptr %add.ptr13
  ret ptr %cast.result15
}